; Function Attrs: mustprogress nounwind uwtable
define void @_ZNK7glslang12TSymbolTable4dumpER9TInfoSinkb(ptr noundef nonnull readonly align 8 captures(none) dereferenceable(40) %0, ptr noundef nonnull align 8 dereferenceable(96) %1, i1 noundef zeroext %2) local_unnamed_addr #0 align 2 {
  %4 = getelementptr inbounds nuw i8, ptr %0, i64 8
  %5 = load ptr, ptr %4, align 8
  %6 = load ptr, ptr %0, align 8
  %7 = ptrtoint ptr %5 to i64
  %8 = ptrtoint ptr %6 to i64
  %9 = sub i64 %7, %8
  %10 = lshr exact i64 %9, 3
  %11 = trunc i64 %10 to i32
  %12 = icmp sgt i32 %11, 0
  br i1 %12, label %.lr.ph, label %._crit_edge

.lr.ph:                                           ; preds = %3
  %13 = getelementptr inbounds nuw i8, ptr %1, i64 48
  %14 = and i64 %10, 2147483647
  br label %15

15:                                               ; preds = %.lr.ph, %_ZNK7glslang17TSymbolTableLevel4dumpER9TInfoSinkb.exit
  %indvars.iv = phi i64 [ %14, %.lr.ph ], [ %indvars.iv.next, %_ZNK7glslang17TSymbolTableLevel4dumpER9TInfoSinkb.exit ]
  %indvars.iv.next = add nsw i64 %indvars.iv, -1
  tail call void @_ZN7glslang13TInfoSinkBase6appendEPKc(ptr noundef nonnull align 8 dereferenceable(48) %13, ptr noundef nonnull @.str.51) #18
  %16 = trunc nuw nsw i64 %indvars.iv.next to i32
  %17 = tail call noundef nonnull align 8 dereferenceable(48) ptr @_ZN7glslang13TInfoSinkBaselsEi(ptr noundef nonnull align 8 dereferenceable(48) %13, i32 noundef %16)
  tail call void @_ZN7glslang13TInfoSinkBase6appendEPKc(ptr noundef nonnull align 8 dereferenceable(48) %17, ptr noundef nonnull @.str.44) #18
  %18 = load ptr, ptr %0, align 8
  %19 = getelementptr inbounds nuw ptr, ptr %18, i64 %indvars.iv.next
  %20 = load ptr, ptr %19, align 8
  %21 = getelementptr inbounds nuw i8, ptr %20, i64 32
  %22 = load ptr, ptr %21, align 8
  %23 = getelementptr inbounds nuw i8, ptr %20, i64 16
  %.not5.i = icmp eq ptr %22, %23
  br i1 %.not5.i, label %_ZNK7glslang17TSymbolTableLevel4dumpER9TInfoSinkb.exit, label %.lr.ph.i

.lr.ph.i:                                         ; preds = %15, %.lr.ph.i
  %.sroa.02.06.i = phi ptr [ %29, %.lr.ph.i ], [ %22, %15 ]
  %24 = getelementptr inbounds nuw i8, ptr %.sroa.02.06.i, i64 72
  %25 = load ptr, ptr %24, align 8
  %26 = load ptr, ptr %25, align 8
  %27 = getelementptr inbounds nuw i8, ptr %26, i64 152
  %28 = load ptr, ptr %27, align 8
  tail call void %28(ptr noundef nonnull align 8 dereferenceable(33) %25, ptr noundef nonnull align 8 dereferenceable(96) %1, i1 noundef zeroext %2) #18
  %29 = tail call noundef ptr @_ZSt18_Rb_tree_incrementPKSt18_Rb_tree_node_base(ptr noundef %.sroa.02.06.i) #20
  %.not.i = icmp eq ptr %29, %23
  br i1 %.not.i, label %_ZNK7glslang17TSymbolTableLevel4dumpER9TInfoSinkb.exit, label %.lr.ph.i, !llvm.loop !35

_ZNK7glslang17TSymbolTableLevel4dumpER9TInfoSinkb.exit: ; preds = %.lr.ph.i, %15
  %30 = icmp sgt i64 %indvars.iv, 1
  br i1 %30, label %15, label %._crit_edge, !llvm.loop !36

._crit_edge:                                      ; preds = %_ZNK7glslang17TSymbolTableLevel4dumpER9TInfoSinkb.exit, %3
  ret void
}